target datalayout = "e-m:e-p270:32:32-p271:32:32-p272:64:64-i64:64-i128:128-f80:128-n8:16:32:64-S128"
target triple = "x86_64-pc-linux-gnu"

%struct.mz_zip_archive_tag = type { i64, i64, i32, i32, i32, ptr, ptr, ptr, ptr, ptr, ptr, ptr, ptr }
%struct.mz_zip_internal_state_tag = type { %struct.mz_zip_array, %struct.mz_zip_array, %struct.mz_zip_array, ptr, ptr, i64, i64 }
%struct.mz_zip_array = type { ptr, i64, i64, i32 }

; Function Attrs: mustprogress uwtable
define internal noundef i64 @_ZL22mz_zip_heap_write_funcPvyPKvm(ptr noundef %0, i64 noundef %1, ptr noundef %2, i64 noundef %3) #5 {
  %5 = alloca i64, align 8
  %6 = alloca ptr, align 8
  %7 = alloca i64, align 8
  %8 = alloca ptr, align 8
  %9 = alloca i64, align 8
  %10 = alloca ptr, align 8
  %11 = alloca ptr, align 8
  %12 = alloca i64, align 8
  %13 = alloca ptr, align 8
  %14 = alloca i64, align 8
  store ptr %0, ptr %6, align 8
  store i64 %1, ptr %7, align 8
  store ptr %2, ptr %8, align 8
  store i64 %3, ptr %9, align 8
  %15 = load ptr, ptr %6, align 8
  store ptr %15, ptr %10, align 8
  %16 = load ptr, ptr %10, align 8
  %17 = getelementptr inbounds %struct.mz_zip_archive_tag, ptr %16, i32 0, i32 12
  %18 = load ptr, ptr %17, align 8
  store ptr %18, ptr %11, align 8
  %19 = load i64, ptr %7, align 8
  %20 = load i64, ptr %9, align 8
  %21 = add i64 %19, %20
  %22 = load ptr, ptr %11, align 8
  %23 = getelementptr inbounds %struct.mz_zip_internal_state_tag, ptr %22, i32 0, i32 5
  %24 = load i64, ptr %23, align 8
  %25 = icmp ugt i64 %21, %24
  br i1 %25, label %26, label %30

26:                                               ; preds = %4
  %27 = load i64, ptr %7, align 8
  %28 = load i64, ptr %9, align 8
  %29 = add i64 %27, %28
  br label %34

30:                                               ; preds = %4
  %31 = load ptr, ptr %11, align 8
  %32 = getelementptr inbounds %struct.mz_zip_internal_state_tag, ptr %31, i32 0, i32 5
  %33 = load i64, ptr %32, align 8
  br label %34

34:                                               ; preds = %30, %26
  %35 = phi i64 [ %29, %26 ], [ %33, %30 ]
  store i64 %35, ptr %12, align 8
  %36 = load i64, ptr %9, align 8
  %37 = icmp ne i64 %36, 0
  br i1 %37, label %39, label %38

38:                                               ; preds = %34
  store i64 0, ptr %5, align 8
  br label %97

39:                                               ; preds = %34
  %40 = load i64, ptr %12, align 8
  %41 = load ptr, ptr %11, align 8
  %42 = getelementptr inbounds %struct.mz_zip_internal_state_tag, ptr %41, i32 0, i32 6
  %43 = load i64, ptr %42, align 8
  %44 = icmp ugt i64 %40, %43
  br i1 %44, label %45, label %85

45:                                               ; preds = %39
  %46 = load ptr, ptr %11, align 8
  %47 = getelementptr inbounds %struct.mz_zip_internal_state_tag, ptr %46, i32 0, i32 6
  %48 = load i64, ptr %47, align 8
  %49 = icmp ugt i64 64, %48
  br i1 %49, label %50, label %51

50:                                               ; preds = %45
  br label %55

51:                                               ; preds = %45
  %52 = load ptr, ptr %11, align 8
  %53 = getelementptr inbounds %struct.mz_zip_internal_state_tag, ptr %52, i32 0, i32 6
  %54 = load i64, ptr %53, align 8
  br label %55

55:                                               ; preds = %51, %50
  %56 = phi i64 [ 64, %50 ], [ %54, %51 ]
  store i64 %56, ptr %14, align 8
  br label %57

57:                                               ; preds = %61, %55
  %58 = load i64, ptr %14, align 8
  %59 = load i64, ptr %12, align 8
  %60 = icmp ult i64 %58, %59
  br i1 %60, label %61, label %64

61:                                               ; preds = %57
  %62 = load i64, ptr %14, align 8
  %63 = mul i64 %62, 2
  store i64 %63, ptr %14, align 8
  br label %57, !llvm.loop !202

64:                                               ; preds = %57
  %65 = load ptr, ptr %10, align 8
  %66 = getelementptr inbounds %struct.mz_zip_archive_tag, ptr %65, i32 0, i32 7
  %67 = load ptr, ptr %66, align 8
  %68 = load ptr, ptr %10, align 8
  %69 = getelementptr inbounds %struct.mz_zip_archive_tag, ptr %68, i32 0, i32 8
  %70 = load ptr, ptr %69, align 8
  %71 = load ptr, ptr %11, align 8
  %72 = getelementptr inbounds %struct.mz_zip_internal_state_tag, ptr %71, i32 0, i32 4
  %73 = load ptr, ptr %72, align 8
  %74 = load i64, ptr %14, align 8
  %75 = call noundef ptr %67(ptr noundef %70, ptr noundef %73, i64 noundef 1, i64 noundef %74)
  store ptr %75, ptr %13, align 8
  %76 = icmp eq ptr null, %75
  br i1 %76, label %77, label %78

77:                                               ; preds = %64
  store i64 0, ptr %5, align 8
  br label %97

78:                                               ; preds = %64
  %79 = load ptr, ptr %13, align 8
  %80 = load ptr, ptr %11, align 8
  %81 = getelementptr inbounds %struct.mz_zip_internal_state_tag, ptr %80, i32 0, i32 4
  store ptr %79, ptr %81, align 8
  %82 = load i64, ptr %14, align 8
  %83 = load ptr, ptr %11, align 8
  %84 = getelementptr inbounds %struct.mz_zip_internal_state_tag, ptr %83, i32 0, i32 6
  store i64 %82, ptr %84, align 8
  br label %85

85:                                               ; preds = %78, %39
  %86 = load ptr, ptr %11, align 8
  %87 = getelementptr inbounds %struct.mz_zip_internal_state_tag, ptr %86, i32 0, i32 4
  %88 = load ptr, ptr %87, align 8
  %89 = load i64, ptr %7, align 8
  %90 = getelementptr inbounds i8, ptr %88, i64 %89
  %91 = load ptr, ptr %8, align 8
  %92 = load i64, ptr %9, align 8
  call void @llvm.memcpy.p0.p0.i64(ptr align 1 %90, ptr align 1 %91, i64 %92, i1 false)
  %93 = load i64, ptr %12, align 8
  %94 = load ptr, ptr %11, align 8
  %95 = getelementptr inbounds %struct.mz_zip_internal_state_tag, ptr %94, i32 0, i32 5
  store i64 %93, ptr %95, align 8
  %96 = load i64, ptr %9, align 8
  store i64 %96, ptr %5, align 8
  br label %97

97:                                               ; preds = %85, %77, %38
  %98 = load i64, ptr %5, align 8
  ret i64 %98
}