; Function Attrs: mustprogress uwtable
define internal noundef i64 @_ZL22mz_zip_heap_write_funcPvyPKvm(ptr nocapture noundef readonly %0, i64 noundef %1, ptr nocapture noundef readonly %2, i64 noundef %3) #9 {
  %5 = getelementptr inbounds i8, ptr %0, i64 88
  %6 = load ptr, ptr %5, align 8
  %7 = add i64 %3, %1
  %8 = getelementptr inbounds i8, ptr %6, i64 112
  %9 = load i64, ptr %8, align 8
  %. = tail call i64 @llvm.umax.i64(i64 %7, i64 %9)
  %.not = icmp eq i64 %3, 0
  br i1 %.not, label %31, label %10

10:                                               ; preds = %4
  %11 = getelementptr inbounds i8, ptr %6, i64 120
  %12 = load i64, ptr %11, align 8
  %13 = icmp ugt i64 %., %12
  br i1 %13, label %14, label %._crit_edge

._crit_edge:                                      ; preds = %10
  %.phi.trans.insert = getelementptr inbounds i8, ptr %6, i64 104
  %.pre = load ptr, ptr %.phi.trans.insert, align 8
  br label %28

14:                                               ; preds = %10
  %spec.select = tail call i64 @llvm.umax.i64(i64 %12, i64 64)
  br label %15

15:                                               ; preds = %15, %14
  %.0 = phi i64 [ %spec.select, %14 ], [ %17, %15 ]
  %16 = icmp ult i64 %.0, %.
  %17 = shl i64 %.0, 1
  br i1 %16, label %15, label %18, !llvm.loop !201

18:                                               ; preds = %15
  %19 = getelementptr inbounds i8, ptr %0, i64 48
  %20 = load ptr, ptr %19, align 8
  %21 = getelementptr inbounds i8, ptr %0, i64 56
  %22 = load ptr, ptr %21, align 8
  %23 = getelementptr inbounds i8, ptr %6, i64 104
  %24 = load ptr, ptr %23, align 8
  %25 = tail call noundef ptr %20(ptr noundef %22, ptr noundef %24, i64 noundef 1, i64 noundef %.0)
  %26 = icmp eq ptr %25, null
  br i1 %26, label %31, label %27

27:                                               ; preds = %18
  store ptr %25, ptr %23, align 8
  store i64 %.0, ptr %11, align 8
  br label %28

28:                                               ; preds = %._crit_edge, %27
  %29 = phi ptr [ %.pre, %._crit_edge ], [ %25, %27 ]
  %30 = getelementptr inbounds i8, ptr %29, i64 %1
  tail call void @llvm.memcpy.p0.p0.i64(ptr align 1 %30, ptr align 1 %2, i64 %3, i1 false)
  store i64 %., ptr %8, align 8
  br label %31

31:                                               ; preds = %18, %4, %28
  %.031 = phi i64 [ %3, %28 ], [ 0, %4 ], [ 0, %18 ]
  ret i64 %.031
}